target datalayout = "e-m:e-p270:32:32-p271:32:32-p272:64:64-i64:64-i128:128-f80:128-n8:16:32:64-S128"
target triple = "x86_64-pc-linux-gnu"

%"struct.pkpy::Dict" = type { ptr, i32, i32, i32, i32, i32, i32, ptr, ptr }

; Function Attrs: mustprogress nounwind uwtable
define void @_ZN4pkpy4DictC2EPNS_2VME(ptr noundef nonnull align 8 dereferenceable(48) %0, ptr noundef %1) unnamed_addr #4 align 2 {
  %3 = alloca ptr, align 8
  %4 = alloca ptr, align 8
  store ptr %0, ptr %3, align 8
  store ptr %1, ptr %4, align 8
  %5 = load ptr, ptr %3, align 8
  %6 = getelementptr inbounds %"struct.pkpy::Dict", ptr %5, i32 0, i32 0
  %7 = load ptr, ptr %4, align 8
  store ptr %7, ptr %6, align 8
  %8 = getelementptr inbounds %"struct.pkpy::Dict", ptr %5, i32 0, i32 1
  store i32 8, ptr %8, align 8
  %9 = getelementptr inbounds %"struct.pkpy::Dict", ptr %5, i32 0, i32 2
  store i32 7, ptr %9, align 4
  %10 = getelementptr inbounds %"struct.pkpy::Dict", ptr %5, i32 0, i32 3
  store i32 0, ptr %10, align 8
  %11 = getelementptr inbounds %"struct.pkpy::Dict", ptr %5, i32 0, i32 4
  store i32 5, ptr %11, align 4
  %12 = getelementptr inbounds %"struct.pkpy::Dict", ptr %5, i32 0, i32 5
  store i32 -1, ptr %12, align 8
  %13 = getelementptr inbounds %"struct.pkpy::Dict", ptr %5, i32 0, i32 6
  store i32 -1, ptr %13, align 4
  %14 = getelementptr inbounds %"struct.pkpy::Dict", ptr %5, i32 0, i32 1
  %15 = load i32, ptr %14, align 8
  %16 = sext i32 %15 to i64
  %17 = mul i64 %16, 16
  %18 = call noundef ptr @_ZN4pkpy13pool128_allocEm(i64 noundef %17) #3
  %19 = getelementptr inbounds %"struct.pkpy::Dict", ptr %5, i32 0, i32 7
  store ptr %18, ptr %19, align 8
  %20 = getelementptr inbounds %"struct.pkpy::Dict", ptr %5, i32 0, i32 7
  %21 = load ptr, ptr %20, align 8
  %22 = getelementptr inbounds %"struct.pkpy::Dict", ptr %5, i32 0, i32 1
  %23 = load i32, ptr %22, align 8
  %24 = sext i32 %23 to i64
  %25 = mul i64 %24, 16
  call void @llvm.memset.p0.i64(ptr align 8 %21, i8 0, i64 %25, i1 false)
  %26 = getelementptr inbounds %"struct.pkpy::Dict", ptr %5, i32 0, i32 1
  %27 = load i32, ptr %26, align 8
  %28 = sext i32 %27 to i64
  %29 = mul i64 %28, 8
  %30 = call noundef ptr @_ZN4pkpy12pool64_allocEm(i64 noundef %29) #3
  %31 = getelementptr inbounds %"struct.pkpy::Dict", ptr %5, i32 0, i32 8
  store ptr %30, ptr %31, align 8
  %32 = getelementptr inbounds %"struct.pkpy::Dict", ptr %5, i32 0, i32 8
  %33 = load ptr, ptr %32, align 8
  %34 = getelementptr inbounds %"struct.pkpy::Dict", ptr %5, i32 0, i32 1
  %35 = load i32, ptr %34, align 8
  %36 = sext i32 %35 to i64
  %37 = mul i64 %36, 8
  call void @llvm.memset.p0.i64(ptr align 4 %33, i8 -1, i64 %37, i1 false)
  ret void
}